; Function Attrs: null_pointer_is_valid sspstrong uwtable
define internal void @dissect_pfcp_quota_validity_time(ptr noundef %0, ptr noundef %1, ptr noundef %2, ptr noundef %3, i16 noundef zeroext %4, i8 zeroext %5, ptr readnone captures(none) %6) #0 {
  %8 = alloca i32, align 4
  %9 = alloca %struct.nstime_t, align 8
  call void @llvm.lifetime.start.p0(i64 4, ptr nonnull %8) #15
  call void @llvm.lifetime.start.p0(i64 16, ptr nonnull %9) #15
  %10 = load i32, ptr @hf_pfcp_validity_time_value, align 4
  %11 = call ptr @proto_tree_add_item_ret_uint(ptr noundef %2, i32 noundef %10, ptr noundef %0, i32 noundef 0, i32 noundef 4, i32 noundef 0, ptr noundef nonnull %8)
  %12 = load i32, ptr %8, align 4
  call void (ptr, ptr, ...) @proto_item_append_text(ptr noundef %3, ptr noundef nonnull @.str.2658, i32 noundef %12)
  %13 = getelementptr inbounds nuw i8, ptr %1, i64 24
  call void @nstime_copy(ptr noundef nonnull %9, ptr noundef nonnull %13)
  %14 = load i32, ptr %8, align 4
  %15 = zext i32 %14 to i64
  %16 = load i64, ptr %9, align 8
  %17 = add i64 %16, %15
  store i64 %17, ptr %9, align 8
  %18 = load i32, ptr @hf_pfcp_validity_time_str, align 4
  %19 = call ptr @proto_tree_add_time(ptr noundef %2, i32 noundef %18, ptr noundef %0, i32 noundef 0, i32 noundef 0, ptr noundef nonnull %9)
  %.not.i = icmp eq ptr %19, null
  br i1 %.not.i, label %proto_item_set_generated.exit, label %20

20:                                               ; preds = %7
  %21 = getelementptr inbounds nuw i8, ptr %19, i64 40
  %22 = load ptr, ptr %21, align 8
  %.not5.i = icmp eq ptr %22, null
  br i1 %.not5.i, label %proto_item_set_generated.exit, label %23

23:                                               ; preds = %20
  %24 = getelementptr inbounds nuw i8, ptr %22, i64 28
  %25 = load i32, ptr %24, align 4
  %26 = or i32 %25, 2
  store i32 %26, ptr %24, align 4
  br label %proto_item_set_generated.exit

proto_item_set_generated.exit:                    ; preds = %7, %20, %23
  %27 = icmp ugt i16 %4, 4
  br i1 %27, label %28, label %30

28:                                               ; preds = %proto_item_set_generated.exit
  %29 = call ptr @proto_tree_add_expert(ptr noundef %2, ptr noundef %1, ptr noundef nonnull @ei_pfcp_ie_data_not_decoded, ptr noundef %0, i32 noundef 4, i32 noundef -1)
  br label %30

30:                                               ; preds = %28, %proto_item_set_generated.exit
  call void @llvm.lifetime.end.p0(i64 16, ptr nonnull %9) #15
  call void @llvm.lifetime.end.p0(i64 4, ptr nonnull %8) #15
  ret void
}